target datalayout = "e-m:e-p270:32:32-p271:32:32-p272:64:64-i64:64-i128:128-f80:128-n8:16:32:64-S128"
target triple = "x86_64-unknown-linux-gnu"

%struct.redisServer = type { i32, i64, ptr, ptr, ptr, i32, i32, i32, i32, i32, ptr, ptr, ptr, ptr, ptr, ptr, i32, i32, i64, i32, i32, i32, i32, ptr, i32, i32, [41 x i8], i32, i64, i32, i32, i32, ptr, ptr, i32, i32, i64, ptr, ptr, ptr, ptr, [2 x i32], i32, i32, i32, i32, i32, [16 x ptr], i32, ptr, ptr, i32, [8 x %struct.connListener], i32, %struct.connListener, ptr, ptr, ptr, ptr, ptr, ptr, ptr, ptr, ptr, ptr, i32, ptr, i32, ptr, [3 x %struct.pause_event], [256 x i8], ptr, i64, i32, i32, i32, i32, i64, i32, i32, i32, i32, i32, i64, i64, i64, i64, i64, i64, i64, i64, i64, double, i64, i64, i64, i64, i64, i64, i64, i64, i64, i64, i64, i64, i64, i64, i64, i64, i64, i64, i64, i64, double, i64, i64, i64, i64, i64, ptr, i64, i64, i64, %struct.malloc_stats, i64, i64, i64, i64, i64, i64, i64, i64, i64, i64, i64, i64, double, [4 x i64], i64, i64, i64, i64, i64, i64, i64, i64, i64, i64, [7 x %struct.anon], i64, i64, i64, i64, i64, i64, [4 x %struct.durationStats], i32, i32, i32, i32, i32, i32, i32, i32, i32, i32, i64, i32, i32, i32, i32, i64, i64, i32, i32, i32, i32, i32, ptr, [3 x %struct.clientBufferLimitsConfig], i32, i32, ptr, i32, i32, i32, i32, ptr, ptr, i32, i32, i64, i64, i64, i64, i64, i32, i32, ptr, i32, i32, i64, i64, i64, i64, i64, i32, i32, i64, i32, i32, i32, i32, i32, i32, i32, i32, ptr, i32, i64, i64, i64, i64, ptr, i32, ptr, i32, i32, i32, i64, i64, i64, i64, i32, i32, i32, i32, i32, i32, ptr, i32, i32, ptr, i32, i32, i32, [2 x i32], i32, %struct.redisOpArray, i32, ptr, i32, ptr, i32, i32, i32, i32, i32, i32, i32, [41 x i8], [41 x i8], i64, i64, i64, i64, i32, i32, ptr, i64, i64, i64, i32, i32, i32, i32, i32, i32, i32, i64, ptr, ptr, ptr, ptr, i32, i32, ptr, ptr, i32, i32, i64, i64, i64, ptr, i32, ptr, i64, i32, i32, i32, i64, i32, i32, i32, i32, ptr, i32, i32, [41 x i8], i64, i32, ptr, i32, i32, i64, i64, i32, i32, i32, i32, i32, i64, [3 x i32], i32, i32, i32, [9 x i32], ptr, ptr, i32, i64, ptr, ptr, i32, i32, i32, i32, i64, i64, i64, i64, i64, i64, i64, i64, i64, i64, i32, i32, i64, i64, i32, i64, i64, i64, i64, i64, ptr, ptr, i32, ptr, i32, i32, i32, i64, i64, ptr, ptr, i32, i32, i32, i32, i32, ptr, ptr, ptr, i32, i32, i32, i32, i32, i32, i32, i64, i32, i64, i32, i32, i32, i32, i32, i32, i32, i64, ptr, ptr, i64, ptr, i32, %struct.aclInfo, i32, i64, i32, i32, i32, %struct.redisTLSContextConfig, ptr, ptr, ptr, ptr, ptr, i64, i32, ptr, i32, i32, i32, i64, i32, ptr }
%struct.connListener = type { [16 x i32], i32, ptr, i32, i32, ptr, ptr }
%struct.pause_event = type { i32, i64 }
%struct.malloc_stats = type { i64, i64, i64, i64, i64 }
%struct.anon = type { i64, i64, [16 x i64], i32 }
%struct.durationStats = type { i64, i64, i64 }
%struct.clientBufferLimitsConfig = type { i64, i64, i64 }
%struct.redisOpArray = type { ptr, i32, i32 }
%struct.aclInfo = type { i64, i64, i64, i64 }
%struct.redisTLSContextConfig = type { ptr, ptr, ptr, ptr, ptr, ptr, ptr, ptr, ptr, ptr, ptr, ptr, i32, i32, i32, i32 }
%struct.redisCommand = type { ptr, ptr, ptr, ptr, i32, ptr, ptr, i32, ptr, i32, ptr, i32, ptr, i32, i64, i64, ptr, i32, ptr, i32, ptr, ptr, i64, i64, i64, i64, i32, ptr, ptr, %struct.keySpec, ptr, ptr, ptr }
%struct.keySpec = type { ptr, i64, i32, %union.anon, i32, %union.anon.2 }
%union.anon = type { %struct.anon.1 }
%struct.anon.1 = type { ptr, i32 }
%union.anon.2 = type { %struct.anon.3 }
%struct.anon.3 = type { i32, i32, i32 }

@server = dso_local global %struct.redisServer zeroinitializer, align 8
@incrCommandStatsOnError.prev_err_count = internal global i64 0, align 8

; Function Attrs: nounwind uwtable
define dso_local i32 @incrCommandStatsOnError(ptr noundef %cmd, i32 noundef %flags) #0 {
entry:
  %cmd.addr = alloca ptr, align 8
  %flags.addr = alloca i32, align 4
  %res = alloca i32, align 4
  store ptr %cmd, ptr %cmd.addr, align 8
  store i32 %flags, ptr %flags.addr, align 4
  store i32 0, ptr %res, align 4
  %0 = load ptr, ptr %cmd.addr, align 8
  %tobool = icmp ne ptr %0, null
  br i1 %tobool, label %if.then, label %if.end10

if.then:                                          ; preds = %entry
  %1 = load i64, ptr getelementptr inbounds (%struct.redisServer, ptr @server, i32 0, i32 140), align 8
  %2 = load i64, ptr @incrCommandStatsOnError.prev_err_count, align 8
  %sub = sub nsw i64 %1, %2
  %cmp = icmp sgt i64 %sub, 0
  br i1 %cmp, label %if.then1, label %if.end9

if.then1:                                         ; preds = %if.then
  %3 = load i32, ptr %flags.addr, align 4
  %and = and i32 %3, 1
  %tobool2 = icmp ne i32 %and, 0
  br i1 %tobool2, label %if.then3, label %if.else

if.then3:                                         ; preds = %if.then1
  %4 = load ptr, ptr %cmd.addr, align 8
  %rejected_calls = getelementptr inbounds %struct.redisCommand, ptr %4, i32 0, i32 24
  %5 = load i64, ptr %rejected_calls, align 8
  %inc = add nsw i64 %5, 1
  store i64 %inc, ptr %rejected_calls, align 8
  store i32 1, ptr %res, align 4
  br label %if.end8

if.else:                                          ; preds = %if.then1
  %6 = load i32, ptr %flags.addr, align 4
  %and4 = and i32 %6, 2
  %tobool5 = icmp ne i32 %and4, 0
  br i1 %tobool5, label %if.then6, label %if.end

if.then6:                                         ; preds = %if.else
  %7 = load ptr, ptr %cmd.addr, align 8
  %failed_calls = getelementptr inbounds %struct.redisCommand, ptr %7, i32 0, i32 25
  %8 = load i64, ptr %failed_calls, align 8
  %inc7 = add nsw i64 %8, 1
  store i64 %inc7, ptr %failed_calls, align 8
  store i32 1, ptr %res, align 4
  br label %if.end

if.end:                                           ; preds = %if.then6, %if.else
  br label %if.end8

if.end8:                                          ; preds = %if.end, %if.then3
  br label %if.end9

if.end9:                                          ; preds = %if.end8, %if.then
  br label %if.end10

if.end10:                                         ; preds = %if.end9, %entry
  %9 = load i64, ptr getelementptr inbounds (%struct.redisServer, ptr @server, i32 0, i32 140), align 8
  store i64 %9, ptr @incrCommandStatsOnError.prev_err_count, align 8
  %10 = load i32, ptr %res, align 4
  ret i32 %10
}