; Function Attrs: mustprogress nofree norecurse nosync nounwind willreturn memory(readwrite, inaccessiblemem: none) uwtable
define dso_local noundef i32 @incrCommandStatsOnError(ptr noundef %cmd, i32 noundef %flags) local_unnamed_addr #27 {
entry:
  %tobool.not = icmp eq ptr %cmd, null
  br i1 %tobool.not, label %if.end10, label %if.then

if.then:                                          ; preds = %entry
  %0 = load i64, ptr getelementptr inbounds (%struct.redisServer, ptr @server, i64 0, i32 140), align 8
  %1 = load i64, ptr @incrCommandStatsOnError.prev_err_count, align 8
  %cmp = icmp sgt i64 %0, %1
  br i1 %cmp, label %if.then1, label %if.end10

if.then1:                                         ; preds = %if.then
  %and = and i32 %flags, 1
  %tobool2.not = icmp eq i32 %and, 0
  br i1 %tobool2.not, label %if.else, label %if.end10.sink.split

if.else:                                          ; preds = %if.then1
  %and4 = and i32 %flags, 2
  %tobool5.not = icmp eq i32 %and4, 0
  br i1 %tobool5.not, label %if.end10, label %if.end10.sink.split

if.end10.sink.split:                              ; preds = %if.else, %if.then1
  %.sink = phi i64 [ 192, %if.then1 ], [ 200, %if.else ]
  %rejected_calls = getelementptr inbounds i8, ptr %cmd, i64 %.sink
  %2 = load i64, ptr %rejected_calls, align 8
  %inc7 = add nsw i64 %2, 1
  store i64 %inc7, ptr %rejected_calls, align 8
  br label %if.end10

if.end10:                                         ; preds = %if.end10.sink.split, %if.then, %if.else, %entry
  %res.0 = phi i32 [ 0, %if.else ], [ 0, %if.then ], [ 0, %entry ], [ 1, %if.end10.sink.split ]
  %3 = load i64, ptr getelementptr inbounds (%struct.redisServer, ptr @server, i64 0, i32 140), align 8
  store i64 %3, ptr @incrCommandStatsOnError.prev_err_count, align 8
  ret i32 %res.0
}